; Function Attrs: mustprogress nofree norecurse nosync nounwind willreturn memory(argmem: readwrite) uwtable
define dso_local void @_ZN4Luau8Property10makeSharedEv(ptr noundef nonnull align 8 captures(none) dereferenceable(176) %0) local_unnamed_addr #10 align 2 {
  %2 = getelementptr inbounds nuw i8, ptr %0, i64 168
  %3 = load i8, ptr %2, align 8, !tbaa !239, !range !119, !noundef !118
  %4 = trunc nuw i8 %3 to i1
  br i1 %4, label %5, label %8

5:                                                ; preds = %1
  %6 = getelementptr inbounds nuw i8, ptr %0, i64 160
  %7 = getelementptr inbounds nuw i8, ptr %0, i64 144
  tail call void @llvm.memcpy.p0.p0.i64(ptr noundef nonnull align 8 dereferenceable(16) %6, ptr noundef nonnull align 8 dereferenceable(16) %7, i64 16, i1 false)
  br label %8

8:                                                ; preds = %5, %1
  ret void
}